target datalayout = "e-m:e-p270:32:32-p271:32:32-p272:64:64-i64:64-i128:128-f80:128-n8:16:32:64-S128"
target triple = "x86_64-pc-linux-gnu"

; Function Attrs: mustprogress nounwind uwtable
define noundef i32 @_ZN9NR_Jacobi6eigsrtEPdPA4_d(ptr noundef %0, ptr noundef %1) #1 {
  %3 = alloca ptr, align 8
  %4 = alloca ptr, align 8
  %5 = alloca i32, align 4
  %6 = alloca i32, align 4
  %7 = alloca i32, align 4
  %8 = alloca double, align 8
  store ptr %0, ptr %3, align 8
  store ptr %1, ptr %4, align 8
  store i32 0, ptr %7, align 4
  br label %9

9:                                                ; preds = %100, %2
  %10 = load i32, ptr %7, align 4
  %11 = icmp slt i32 %10, 4
  br i1 %11, label %12, label %103

12:                                               ; preds = %9
  %13 = load ptr, ptr %3, align 8
  %14 = load i32, ptr %7, align 4
  store i32 %14, ptr %5, align 4
  %15 = sext i32 %14 to i64
  %16 = getelementptr inbounds double, ptr %13, i64 %15
  %17 = load double, ptr %16, align 8
  store double %17, ptr %8, align 8
  %18 = load i32, ptr %7, align 4
  %19 = add nsw i32 %18, 1
  store i32 %19, ptr %6, align 4
  br label %20

20:                                               ; preds = %38, %12
  %21 = load i32, ptr %6, align 4
  %22 = icmp slt i32 %21, 4
  br i1 %22, label %23, label %41

23:                                               ; preds = %20
  %24 = load ptr, ptr %3, align 8
  %25 = load i32, ptr %6, align 4
  %26 = sext i32 %25 to i64
  %27 = getelementptr inbounds double, ptr %24, i64 %26
  %28 = load double, ptr %27, align 8
  %29 = load double, ptr %8, align 8
  %30 = fcmp oge double %28, %29
  br i1 %30, label %31, label %37

31:                                               ; preds = %23
  %32 = load ptr, ptr %3, align 8
  %33 = load i32, ptr %6, align 4
  store i32 %33, ptr %5, align 4
  %34 = sext i32 %33 to i64
  %35 = getelementptr inbounds double, ptr %32, i64 %34
  %36 = load double, ptr %35, align 8
  store double %36, ptr %8, align 8
  br label %37

37:                                               ; preds = %31, %23
  br label %38

38:                                               ; preds = %37
  %39 = load i32, ptr %6, align 4
  %40 = add nsw i32 %39, 1
  store i32 %40, ptr %6, align 4
  br label %20, !llvm.loop !19

41:                                               ; preds = %20
  %42 = load i32, ptr %5, align 4
  %43 = load i32, ptr %7, align 4
  %44 = icmp ne i32 %42, %43
  br i1 %44, label %45, label %99

45:                                               ; preds = %41
  %46 = load ptr, ptr %3, align 8
  %47 = load i32, ptr %7, align 4
  %48 = sext i32 %47 to i64
  %49 = getelementptr inbounds double, ptr %46, i64 %48
  %50 = load double, ptr %49, align 8
  %51 = load ptr, ptr %3, align 8
  %52 = load i32, ptr %5, align 4
  %53 = sext i32 %52 to i64
  %54 = getelementptr inbounds double, ptr %51, i64 %53
  store double %50, ptr %54, align 8
  %55 = load double, ptr %8, align 8
  %56 = load ptr, ptr %3, align 8
  %57 = load i32, ptr %7, align 4
  %58 = sext i32 %57 to i64
  %59 = getelementptr inbounds double, ptr %56, i64 %58
  store double %55, ptr %59, align 8
  store i32 0, ptr %6, align 4
  br label %60

60:                                               ; preds = %95, %45
  %61 = load i32, ptr %6, align 4
  %62 = icmp slt i32 %61, 4
  br i1 %62, label %63, label %98

63:                                               ; preds = %60
  %64 = load ptr, ptr %4, align 8
  %65 = load i32, ptr %6, align 4
  %66 = sext i32 %65 to i64
  %67 = getelementptr inbounds [4 x double], ptr %64, i64 %66
  %68 = load i32, ptr %7, align 4
  %69 = sext i32 %68 to i64
  %70 = getelementptr inbounds [4 x double], ptr %67, i64 0, i64 %69
  %71 = load double, ptr %70, align 8
  store double %71, ptr %8, align 8
  %72 = load ptr, ptr %4, align 8
  %73 = load i32, ptr %6, align 4
  %74 = sext i32 %73 to i64
  %75 = getelementptr inbounds [4 x double], ptr %72, i64 %74
  %76 = load i32, ptr %5, align 4
  %77 = sext i32 %76 to i64
  %78 = getelementptr inbounds [4 x double], ptr %75, i64 0, i64 %77
  %79 = load double, ptr %78, align 8
  %80 = load ptr, ptr %4, align 8
  %81 = load i32, ptr %6, align 4
  %82 = sext i32 %81 to i64
  %83 = getelementptr inbounds [4 x double], ptr %80, i64 %82
  %84 = load i32, ptr %7, align 4
  %85 = sext i32 %84 to i64
  %86 = getelementptr inbounds [4 x double], ptr %83, i64 0, i64 %85
  store double %79, ptr %86, align 8
  %87 = load double, ptr %8, align 8
  %88 = load ptr, ptr %4, align 8
  %89 = load i32, ptr %6, align 4
  %90 = sext i32 %89 to i64
  %91 = getelementptr inbounds [4 x double], ptr %88, i64 %90
  %92 = load i32, ptr %5, align 4
  %93 = sext i32 %92 to i64
  %94 = getelementptr inbounds [4 x double], ptr %91, i64 0, i64 %93
  store double %87, ptr %94, align 8
  br label %95

95:                                               ; preds = %63
  %96 = load i32, ptr %6, align 4
  %97 = add nsw i32 %96, 1
  store i32 %97, ptr %6, align 4
  br label %60, !llvm.loop !20

98:                                               ; preds = %60
  br label %99

99:                                               ; preds = %98, %41
  br label %100

100:                                              ; preds = %99
  %101 = load i32, ptr %7, align 4
  %102 = add nsw i32 %101, 1
  store i32 %102, ptr %7, align 4
  br label %9, !llvm.loop !21

103:                                              ; preds = %9
  ret i32 0
}