; Function Attrs: mustprogress nofree norecurse nosync nounwind memory(argmem: readwrite) uwtable
define noundef i32 @_ZN9NR_Jacobi6eigsrtEPdPA4_d(ptr nocapture noundef %0, ptr nocapture noundef %1) local_unnamed_addr #0 {
  br label %3

3:                                                ; preds = %2, %.loopexit
  %indvars.iv54 = phi i64 [ 0, %2 ], [ %indvars.iv.next55, %.loopexit ]
  %indvars.iv = phi i64 [ 1, %2 ], [ %indvars.iv.next, %.loopexit ]
  %4 = getelementptr inbounds double, ptr %0, i64 %indvars.iv54
  %5 = load double, ptr %4, align 8
  %indvars.iv.next55 = add nuw nsw i64 %indvars.iv54, 1
  %6 = icmp ult i64 %indvars.iv54, 3
  %7 = trunc nuw nsw i64 %indvars.iv54 to i32
  br i1 %6, label %.lr.ph, label %._crit_edge

.lr.ph:                                           ; preds = %3, %.lr.ph
  %indvars.iv47 = phi i64 [ %indvars.iv.next48, %.lr.ph ], [ %indvars.iv, %3 ]
  %.043 = phi double [ %.1, %.lr.ph ], [ %5, %3 ]
  %.03841 = phi i32 [ %.139, %.lr.ph ], [ %7, %3 ]
  %8 = getelementptr inbounds double, ptr %0, i64 %indvars.iv47
  %9 = load double, ptr %8, align 8
  %10 = fcmp ult double %9, %.043
  %11 = trunc nuw nsw i64 %indvars.iv47 to i32
  %.139 = select i1 %10, i32 %.03841, i32 %11
  %.1 = select i1 %10, double %.043, double %9
  %indvars.iv.next48 = add nuw nsw i64 %indvars.iv47, 1
  %exitcond.not = icmp eq i64 %indvars.iv.next48, 4
  br i1 %exitcond.not, label %._crit_edge, label %.lr.ph, !llvm.loop !18

._crit_edge:                                      ; preds = %.lr.ph, %3
  %.038.lcssa = phi i32 [ %7, %3 ], [ %.139, %.lr.ph ]
  %.0.lcssa = phi double [ %5, %3 ], [ %.1, %.lr.ph ]
  %12 = zext i32 %.038.lcssa to i64
  %.not = icmp eq i64 %indvars.iv54, %12
  br i1 %.not, label %.loopexit, label %13

13:                                               ; preds = %._crit_edge
  %14 = sext i32 %.038.lcssa to i64
  %15 = getelementptr inbounds double, ptr %0, i64 %14
  store double %5, ptr %15, align 8
  store double %.0.lcssa, ptr %4, align 8
  br label %16

16:                                               ; preds = %13, %16
  %indvars.iv50 = phi i64 [ 0, %13 ], [ %indvars.iv.next51, %16 ]
  %17 = getelementptr inbounds [4 x double], ptr %1, i64 %indvars.iv50, i64 %indvars.iv54
  %18 = load double, ptr %17, align 8
  %19 = getelementptr inbounds [4 x double], ptr %1, i64 %indvars.iv50, i64 %14
  %20 = load double, ptr %19, align 8
  store double %20, ptr %17, align 8
  store double %18, ptr %19, align 8
  %indvars.iv.next51 = add nuw nsw i64 %indvars.iv50, 1
  %exitcond53.not = icmp eq i64 %indvars.iv.next51, 4
  br i1 %exitcond53.not, label %.loopexit, label %16, !llvm.loop !19

.loopexit:                                        ; preds = %16, %._crit_edge
  %indvars.iv.next = add nuw nsw i64 %indvars.iv, 1
  %exitcond57.not = icmp eq i64 %indvars.iv.next55, 4
  br i1 %exitcond57.not, label %21, label %3, !llvm.loop !20

21:                                               ; preds = %.loopexit
  ret i32 0
}